; Function Attrs: mustprogress uwtable
define hidden noundef zeroext i1 @_ZNK7datalog12rule_manager7is_factEP3app(ptr nocapture noundef nonnull readonly align 8 dereferenceable(1368) %this, ptr nocapture noundef readonly %head) local_unnamed_addr #3 align 2 {
entry:
  %m_num_args.i = getelementptr inbounds i8, ptr %head, i64 24
  %0 = load i32, ptr %m_num_args.i, align 8
  %cmp4 = icmp eq i32 %0, 0
  br i1 %cmp4, label %return, label %for.body.lr.ph

for.body.lr.ph:                                   ; preds = %entry
  %m_args.i = getelementptr inbounds i8, ptr %head, i64 32
  %1 = zext i32 %0 to i64
  %2 = load ptr, ptr %this, align 8
  %3 = load ptr, ptr %m_args.i, align 8
  %call38 = tail call noundef zeroext i1 @_ZNK11ast_manager8is_valueEP4expr(ptr noundef nonnull align 8 dereferenceable(976) %2, ptr noundef %3)
  br i1 %call38, label %for.cond, label %return

for.cond:                                         ; preds = %for.body.lr.ph, %for.body
  %indvars.iv9 = phi i64 [ %indvars.iv.next, %for.body ], [ 0, %for.body.lr.ph ]
  %indvars.iv.next = add nuw nsw i64 %indvars.iv9, 1
  %exitcond = icmp eq i64 %indvars.iv.next, %1
  br i1 %exitcond, label %return.loopexit, label %for.body, !llvm.loop !100

for.body:                                         ; preds = %for.cond
  %4 = load ptr, ptr %this, align 8
  %arrayidx.i = getelementptr inbounds [0 x ptr], ptr %m_args.i, i64 0, i64 %indvars.iv.next
  %5 = load ptr, ptr %arrayidx.i, align 8
  %call3 = tail call noundef zeroext i1 @_ZNK11ast_manager8is_valueEP4expr(ptr noundef nonnull align 8 dereferenceable(976) %4, ptr noundef %5)
  br i1 %call3, label %for.cond, label %return.loopexit, !llvm.loop !100

return.loopexit:                                  ; preds = %for.body, %for.cond
  %cmp.le = icmp uge i64 %indvars.iv.next, %1
  br label %return

return:                                           ; preds = %return.loopexit, %for.body.lr.ph, %entry
  %cmp.lcssa = phi i1 [ true, %entry ], [ false, %for.body.lr.ph ], [ %cmp.le, %return.loopexit ]
  ret i1 %cmp.lcssa
}